target datalayout = "e-m:e-p270:32:32-p271:32:32-p272:64:64-i64:64-i128:128-f80:128-n8:16:32:64-S128"
target triple = "x86_64-unknown-linux-gnu"

%"class.std::__cxx11::basic_string" = type { %"struct.std::__cxx11::basic_string<char>::_Alloc_hider", i64, %union.anon }
%"struct.std::__cxx11::basic_string<char>::_Alloc_hider" = type { ptr }
%union.anon = type { i64, [8 x i8] }
%"struct.Assimp::LWO::Texture" = type { %"class.std::__cxx11::basic_string", i32, float, i32, %"class.std::__cxx11::basic_string", i32, i8, i32, i8, i32, i32, float, float, i32, i32, %"class.std::__cxx11::basic_string" }
%"class.Assimp::LWOImporter" = type <{ %"class.Assimp::BaseImporter", i8, i8, i8, [5 x i8], ptr, ptr, ptr, ptr, ptr, %"class.std::vector", %"class.std::vector.6", ptr, i32, [4 x i8], ptr, i8, [3 x i8], i32, %"class.std::__cxx11::basic_string", i8, [7 x i8] }>
%"class.Assimp::BaseImporter" = type { ptr, double, double, %"class.std::__cxx11::basic_string", %"class.std::__exception_ptr::exception_ptr", ptr }
%"class.std::__exception_ptr::exception_ptr" = type { ptr }
%"class.std::vector" = type { %"struct.std::_Vector_base" }
%"struct.std::_Vector_base" = type { %"struct.std::_Vector_base<Assimp::LWO::Clip, std::allocator<Assimp::LWO::Clip>>::_Vector_impl" }
%"struct.std::_Vector_base<Assimp::LWO::Clip, std::allocator<Assimp::LWO::Clip>>::_Vector_impl" = type { %"struct.std::_Vector_base<Assimp::LWO::Clip, std::allocator<Assimp::LWO::Clip>>::_Vector_impl_data" }
%"struct.std::_Vector_base<Assimp::LWO::Clip, std::allocator<Assimp::LWO::Clip>>::_Vector_impl_data" = type { ptr, ptr, ptr }
%"class.std::vector.6" = type { %"struct.std::_Vector_base.7" }
%"struct.std::_Vector_base.7" = type { %"struct.std::_Vector_base<Assimp::LWO::Envelope, std::allocator<Assimp::LWO::Envelope>>::_Vector_impl" }
%"struct.std::_Vector_base<Assimp::LWO::Envelope, std::allocator<Assimp::LWO::Envelope>>::_Vector_impl" = type { %"struct.std::_Vector_base<Assimp::LWO::Envelope, std::allocator<Assimp::LWO::Envelope>>::_Vector_impl_data" }
%"struct.std::_Vector_base<Assimp::LWO::Envelope, std::allocator<Assimp::LWO::Envelope>>::_Vector_impl_data" = type { ptr, ptr, ptr }
%"struct.Assimp::IFF::SubChunkHeader" = type { i32, i16 }

@_ZTI17DeadlyImportError = linkonce_odr constant { ptr, ptr, ptr } { ptr getelementptr inbounds (ptr, ptr @_ZTVN10__cxxabiv120__si_class_type_infoE, i64 2), ptr @_ZTS17DeadlyImportError, ptr @_ZTI15DeadlyErrorBase }, comdat, align 8
@.str.43 = private unnamed_addr constant [42 x i8] c"LWO2: Ill-formed SURF.BLOK ordinal string\00", align 1
@.str.44 = private unnamed_addr constant [2 x i8] zeroinitializer, align 1
@.str.45 = private unnamed_addr constant [42 x i8] c"LWO2: Invalid texture header chunk length\00", align 1

; Function Attrs: mustprogress nounwind uwtable
define linkonce_odr void @_ZSt4swapIhENSt9enable_ifIXsr6__and_ISt6__not_ISt15__is_tuple_likeIT_EESt21is_move_constructibleIS3_ESt18is_move_assignableIS3_EEE5valueEvE4typeERS3_SC_(ptr noundef nonnull align 1 dereferenceable(1) %__a, ptr noundef nonnull align 1 dereferenceable(1) %__b) #0 comdat {
entry:
  %__a.addr = alloca ptr, align 8
  %__b.addr = alloca ptr, align 8
  %__tmp = alloca i8, align 1
  store ptr %__a, ptr %__a.addr, align 8
  store ptr %__b, ptr %__b.addr, align 8
  %0 = load ptr, ptr %__a.addr, align 8
  %1 = load i8, ptr %0, align 1
  store i8 %1, ptr %__tmp, align 1
  %2 = load ptr, ptr %__b.addr, align 8
  %3 = load i8, ptr %2, align 1
  %4 = load ptr, ptr %__a.addr, align 8
  store i8 %3, ptr %4, align 1
  %5 = load i8, ptr %__tmp, align 1
  %6 = load ptr, ptr %__b.addr, align 8
  store i8 %5, ptr %6, align 1
  ret void
}

; Function Attrs: mustprogress nounwind uwtable
define linkonce_odr hidden void @_ZN6Assimp8ByteSwap5Swap4EPv(ptr noundef %_szOut) #0 comdat align 2 {
entry:
  %_szOut.addr = alloca ptr, align 8
  %szOut = alloca ptr, align 8
  store ptr %_szOut, ptr %_szOut.addr, align 8
  %0 = load ptr, ptr %_szOut.addr, align 8
  store ptr %0, ptr %szOut, align 8
  %1 = load ptr, ptr %szOut, align 8
  %arrayidx = getelementptr inbounds i8, ptr %1, i64 0
  %2 = load ptr, ptr %szOut, align 8
  %arrayidx1 = getelementptr inbounds i8, ptr %2, i64 3
  call void @_ZSt4swapIhENSt9enable_ifIXsr6__and_ISt6__not_ISt15__is_tuple_likeIT_EESt21is_move_constructibleIS3_ESt18is_move_assignableIS3_EEE5valueEvE4typeERS3_SC_(ptr noundef nonnull align 1 dereferenceable(1) %arrayidx, ptr noundef nonnull align 1 dereferenceable(1) %arrayidx1) #14
  %3 = load ptr, ptr %szOut, align 8
  %arrayidx2 = getelementptr inbounds i8, ptr %3, i64 1
  %4 = load ptr, ptr %szOut, align 8
  %arrayidx3 = getelementptr inbounds i8, ptr %4, i64 2
  call void @_ZSt4swapIhENSt9enable_ifIXsr6__and_ISt6__not_ISt15__is_tuple_likeIT_EESt21is_move_constructibleIS3_ESt18is_move_assignableIS3_EEE5valueEvE4typeERS3_SC_(ptr noundef nonnull align 1 dereferenceable(1) %arrayidx2, ptr noundef nonnull align 1 dereferenceable(1) %arrayidx3) #14
  ret void
}

; Function Attrs: mustprogress nounwind uwtable
define linkonce_odr hidden void @_ZN6Assimp8ByteSwap5Swap2EPv(ptr noundef %_szOut) #0 comdat align 2 {
entry:
  %_szOut.addr = alloca ptr, align 8
  %szOut = alloca ptr, align 8
  store ptr %_szOut, ptr %_szOut.addr, align 8
  %0 = load ptr, ptr %_szOut.addr, align 8
  store ptr %0, ptr %szOut, align 8
  %1 = load ptr, ptr %szOut, align 8
  %arrayidx = getelementptr inbounds i8, ptr %1, i64 0
  %2 = load ptr, ptr %szOut, align 8
  %arrayidx1 = getelementptr inbounds i8, ptr %2, i64 1
  call void @_ZSt4swapIhENSt9enable_ifIXsr6__and_ISt6__not_ISt15__is_tuple_likeIT_EESt21is_move_constructibleIS3_ESt18is_move_assignableIS3_EEE5valueEvE4typeERS3_SC_(ptr noundef nonnull align 1 dereferenceable(1) %arrayidx, ptr noundef nonnull align 1 dereferenceable(1) %arrayidx1) #14
  ret void
}

; Function Attrs: mustprogress nounwind uwtable
define linkonce_odr hidden noundef float @_ZN6Assimp11LWOImporter5GetF4Ev(ptr noundef nonnull align 8 dereferenceable(233) %this) #0 comdat align 2 {
entry:
  %this.addr = alloca ptr, align 8
  %f = alloca float, align 4
  store ptr %this, ptr %this.addr, align 8
  %this1 = load ptr, ptr %this.addr, align 8
  %mFileBuffer = getelementptr inbounds %"class.Assimp::LWOImporter", ptr %this1, i32 0, i32 12
  %0 = load ptr, ptr %mFileBuffer, align 8
  call void @llvm.memcpy.p0.p0.i64(ptr align 4 %f, ptr align 1 %0, i64 4, i1 false)
  %mFileBuffer2 = getelementptr inbounds %"class.Assimp::LWOImporter", ptr %this1, i32 0, i32 12
  %1 = load ptr, ptr %mFileBuffer2, align 8
  %add.ptr = getelementptr inbounds i8, ptr %1, i64 4
  store ptr %add.ptr, ptr %mFileBuffer2, align 8
  call void @_ZN6Assimp8ByteSwap5Swap4EPv(ptr noundef %f)
  %2 = load float, ptr %f, align 4
  ret float %2
}

; Function Attrs: mustprogress nounwind uwtable
define linkonce_odr hidden noundef zeroext i16 @_ZN6Assimp11LWOImporter5GetU2Ev(ptr noundef nonnull align 8 dereferenceable(233) %this) #0 comdat align 2 {
entry:
  %this.addr = alloca ptr, align 8
  %f = alloca i16, align 2
  store ptr %this, ptr %this.addr, align 8
  %this1 = load ptr, ptr %this.addr, align 8
  %mFileBuffer = getelementptr inbounds %"class.Assimp::LWOImporter", ptr %this1, i32 0, i32 12
  %0 = load ptr, ptr %mFileBuffer, align 8
  call void @llvm.memcpy.p0.p0.i64(ptr align 2 %f, ptr align 1 %0, i64 2, i1 false)
  %mFileBuffer2 = getelementptr inbounds %"class.Assimp::LWOImporter", ptr %this1, i32 0, i32 12
  %1 = load ptr, ptr %mFileBuffer2, align 8
  %add.ptr = getelementptr inbounds i8, ptr %1, i64 2
  store ptr %add.ptr, ptr %mFileBuffer2, align 8
  call void @_ZN6Assimp8ByteSwap5Swap2EPv(ptr noundef %f)
  %2 = load i16, ptr %f, align 2
  ret i16 %2
}

; Function Attrs: mustprogress nounwind uwtable
define linkonce_odr hidden noundef i32 @_ZN6Assimp11LWOImporter5GetU4Ev(ptr noundef nonnull align 8 dereferenceable(233) %this) #0 comdat align 2 {
entry:
  %this.addr = alloca ptr, align 8
  %f = alloca i32, align 4
  store ptr %this, ptr %this.addr, align 8
  %this1 = load ptr, ptr %this.addr, align 8
  %mFileBuffer = getelementptr inbounds %"class.Assimp::LWOImporter", ptr %this1, i32 0, i32 12
  %0 = load ptr, ptr %mFileBuffer, align 8
  call void @llvm.memcpy.p0.p0.i64(ptr align 4 %f, ptr align 1 %0, i64 4, i1 false)
  %mFileBuffer2 = getelementptr inbounds %"class.Assimp::LWOImporter", ptr %this1, i32 0, i32 12
  %1 = load ptr, ptr %mFileBuffer2, align 8
  %add.ptr = getelementptr inbounds i8, ptr %1, i64 4
  store ptr %add.ptr, ptr %mFileBuffer2, align 8
  call void @_ZN6Assimp8ByteSwap5Swap4EPv(ptr noundef %f)
  %2 = load i32, ptr %f, align 4
  ret i32 %2
}

; Function Attrs: mustprogress uwtable
define linkonce_odr hidden i64 @_ZN6Assimp3IFF12LoadSubChunkERPh(ptr noundef nonnull align 8 dereferenceable(8) %outFile) #2 comdat {
entry:
  %retval = alloca %"struct.Assimp::IFF::SubChunkHeader", align 4
  %outFile.addr = alloca ptr, align 8
  store ptr %outFile, ptr %outFile.addr, align 8
  %type = getelementptr inbounds %"struct.Assimp::IFF::SubChunkHeader", ptr %retval, i32 0, i32 0
  %0 = load ptr, ptr %outFile.addr, align 8
  %1 = load ptr, ptr %0, align 8
  call void @llvm.memcpy.p0.p0.i64(ptr align 4 %type, ptr align 1 %1, i64 4, i1 false)
  %2 = load ptr, ptr %outFile.addr, align 8
  %3 = load ptr, ptr %2, align 8
  %add.ptr = getelementptr inbounds i8, ptr %3, i64 4
  store ptr %add.ptr, ptr %2, align 8
  %length = getelementptr inbounds %"struct.Assimp::IFF::SubChunkHeader", ptr %retval, i32 0, i32 1
  %4 = load ptr, ptr %outFile.addr, align 8
  %5 = load ptr, ptr %4, align 8
  call void @llvm.memcpy.p0.p0.i64(ptr align 4 %length, ptr align 1 %5, i64 2, i1 false)
  %6 = load ptr, ptr %outFile.addr, align 8
  %7 = load ptr, ptr %6, align 8
  %add.ptr1 = getelementptr inbounds i8, ptr %7, i64 2
  store ptr %add.ptr1, ptr %6, align 8
  %length2 = getelementptr inbounds %"struct.Assimp::IFF::SubChunkHeader", ptr %retval, i32 0, i32 1
  call void @_ZN6Assimp8ByteSwap5Swap2EPv(ptr noundef %length2)
  %type3 = getelementptr inbounds %"struct.Assimp::IFF::SubChunkHeader", ptr %retval, i32 0, i32 0
  call void @_ZN6Assimp8ByteSwap5Swap4EPv(ptr noundef %type3)
  %8 = load i64, ptr %retval, align 4
  ret i64 %8
}

; Function Attrs: mustprogress uwtable
define hidden void @_ZN6Assimp11LWOImporter21LoadLWO2TextureHeaderEjRNS_3LWO7TextureE(ptr noundef nonnull align 8 dereferenceable(233) %this, i32 noundef %size, ptr noundef nonnull align 8 dereferenceable(152) %tex) #2 align 2 personality ptr @__gxx_personality_v0 {
entry:
  %this.addr = alloca ptr, align 8
  %size.addr = alloca i32, align 4
  %tex.addr = alloca ptr, align 8
  %end = alloca ptr, align 8
  %head = alloca %"struct.Assimp::IFF::SubChunkHeader", align 4
  %exn.slot = alloca ptr, align 8
  %ehselector.slot = alloca i32, align 4
  %next = alloca ptr, align 8
  store ptr %this, ptr %this.addr, align 8
  store i32 %size, ptr %size.addr, align 4
  store ptr %tex, ptr %tex.addr, align 8
  %this1 = load ptr, ptr %this.addr, align 8
  %mFileBuffer = getelementptr inbounds %"class.Assimp::LWOImporter", ptr %this1, i32 0, i32 12
  %0 = load ptr, ptr %mFileBuffer, align 8
  %1 = load i32, ptr %size.addr, align 4
  %idx.ext = zext i32 %1 to i64
  %add.ptr = getelementptr inbounds i8, ptr %0, i64 %idx.ext
  store ptr %add.ptr, ptr %end, align 8
  %2 = load ptr, ptr %tex.addr, align 8
  %ordinal = getelementptr inbounds %"struct.Assimp::LWO::Texture", ptr %2, i32 0, i32 15
  %3 = load i32, ptr %size.addr, align 4
  call void @_ZN6Assimp11LWOImporter5GetS0ERNSt7__cxx1112basic_stringIcSt11char_traitsIcESaIcEEEj(ptr noundef nonnull align 8 dereferenceable(233) %this1, ptr noundef nonnull align 8 dereferenceable(32) %ordinal, i32 noundef %3)
  %4 = load ptr, ptr %tex.addr, align 8
  %ordinal2 = getelementptr inbounds %"struct.Assimp::LWO::Texture", ptr %4, i32 0, i32 15
  %call = call noundef i64 @_ZNKSt7__cxx1112basic_stringIcSt11char_traitsIcESaIcEE6lengthEv(ptr noundef nonnull align 8 dereferenceable(32) %ordinal2) #14
  %tobool = icmp ne i64 %call, 0
  br i1 %tobool, label %if.end, label %if.then

if.then:                                          ; preds = %entry
  %call3 = call noundef ptr @_ZN6Assimp13DefaultLogger3getEv()
  call void @_ZN6Assimp6Logger5errorEPKc(ptr noundef nonnull align 8 dereferenceable(12) %call3, ptr noundef @.str.43)
  %5 = load ptr, ptr %tex.addr, align 8
  %ordinal4 = getelementptr inbounds %"struct.Assimp::LWO::Texture", ptr %5, i32 0, i32 15
  %call5 = call noundef nonnull align 8 dereferenceable(32) ptr @_ZNSt7__cxx1112basic_stringIcSt11char_traitsIcESaIcEEaSEPKc(ptr noundef nonnull align 8 dereferenceable(32) %ordinal4, ptr noundef @.str.44)
  br label %if.end

if.end:                                           ; preds = %if.then, %entry
  br label %while.body

while.body:                                       ; preds = %sw.epilog, %if.end
  %mFileBuffer6 = getelementptr inbounds %"class.Assimp::LWOImporter", ptr %this1, i32 0, i32 12
  %6 = load ptr, ptr %mFileBuffer6, align 8
  %add.ptr7 = getelementptr inbounds i8, ptr %6, i64 6
  %7 = load ptr, ptr %end, align 8
  %cmp = icmp uge ptr %add.ptr7, %7
  br i1 %cmp, label %if.then8, label %if.end9

if.then8:                                         ; preds = %while.body
  br label %while.end

if.end9:                                          ; preds = %while.body
  %mFileBuffer10 = getelementptr inbounds %"class.Assimp::LWOImporter", ptr %this1, i32 0, i32 12
  %call11 = call i64 @_ZN6Assimp3IFF12LoadSubChunkERPh(ptr noundef nonnull align 8 dereferenceable(8) %mFileBuffer10)
  store i64 %call11, ptr %head, align 4
  %mFileBuffer12 = getelementptr inbounds %"class.Assimp::LWOImporter", ptr %this1, i32 0, i32 12
  %8 = load ptr, ptr %mFileBuffer12, align 8
  %length = getelementptr inbounds %"struct.Assimp::IFF::SubChunkHeader", ptr %head, i32 0, i32 1
  %9 = load i16, ptr %length, align 4
  %conv = zext i16 %9 to i32
  %idx.ext13 = sext i32 %conv to i64
  %add.ptr14 = getelementptr inbounds i8, ptr %8, i64 %idx.ext13
  %10 = load ptr, ptr %end, align 8
  %cmp15 = icmp ugt ptr %add.ptr14, %10
  br i1 %cmp15, label %if.then16, label %if.end17

if.then16:                                        ; preds = %if.end9
  %exception = call ptr @__cxa_allocate_exception(i64 16) #14
  invoke void @_ZN17DeadlyImportErrorC2EPKc(ptr noundef nonnull align 8 dereferenceable(16) %exception, ptr noundef @.str.45)
          to label %invoke.cont unwind label %lpad

invoke.cont:                                      ; preds = %if.then16
  call void @__cxa_throw(ptr %exception, ptr @_ZTI17DeadlyImportError, ptr @_ZN17DeadlyImportErrorD2Ev) #16
  unreachable

lpad:                                             ; preds = %if.then16
  %11 = landingpad { ptr, i32 }
          cleanup
  %12 = extractvalue { ptr, i32 } %11, 0
  store ptr %12, ptr %exn.slot, align 8
  %13 = extractvalue { ptr, i32 } %11, 1
  store i32 %13, ptr %ehselector.slot, align 4
  call void @__cxa_free_exception(ptr %exception) #14
  br label %eh.resume

if.end17:                                         ; preds = %if.end9
  %mFileBuffer18 = getelementptr inbounds %"class.Assimp::LWOImporter", ptr %this1, i32 0, i32 12
  %14 = load ptr, ptr %mFileBuffer18, align 8
  %length19 = getelementptr inbounds %"struct.Assimp::IFF::SubChunkHeader", ptr %head, i32 0, i32 1
  %15 = load i16, ptr %length19, align 4
  %conv20 = zext i16 %15 to i32
  %idx.ext21 = sext i32 %conv20 to i64
  %add.ptr22 = getelementptr inbounds i8, ptr %14, i64 %idx.ext21
  store ptr %add.ptr22, ptr %next, align 8
  %type = getelementptr inbounds %"struct.Assimp::IFF::SubChunkHeader", ptr %head, i32 0, i32 0
  %16 = load i32, ptr %type, align 4
  switch i32 %16, label %sw.epilog [
    i32 1128808782, label %sw.bb
    i32 1162756418, label %sw.bb25
    i32 1330659651, label %sw.bb28
  ]

sw.bb:                                            ; preds = %if.end17
  %call23 = call noundef i32 @_ZN6Assimp11LWOImporter5GetU4Ev(ptr noundef nonnull align 8 dereferenceable(233) %this1)
  %17 = load ptr, ptr %tex.addr, align 8
  %type24 = getelementptr inbounds %"struct.Assimp::LWO::Texture", ptr %17, i32 0, i32 3
  store i32 %call23, ptr %type24, align 8
  br label %sw.epilog

sw.bb25:                                          ; preds = %if.end17
  %call26 = call noundef zeroext i16 @_ZN6Assimp11LWOImporter5GetU2Ev(ptr noundef nonnull align 8 dereferenceable(233) %this1)
  %tobool27 = icmp ne i16 %call26, 0
  %cond = select i1 %tobool27, i1 true, i1 false
  %18 = load ptr, ptr %tex.addr, align 8
  %enabled = getelementptr inbounds %"struct.Assimp::LWO::Texture", ptr %18, i32 0, i32 6
  %frombool = zext i1 %cond to i8
  store i8 %frombool, ptr %enabled, align 4
  br label %sw.epilog

sw.bb28:                                          ; preds = %if.end17
  %call29 = call noundef zeroext i16 @_ZN6Assimp11LWOImporter5GetU2Ev(ptr noundef nonnull align 8 dereferenceable(233) %this1)
  %conv30 = zext i16 %call29 to i32
  %19 = load ptr, ptr %tex.addr, align 8
  %blendType = getelementptr inbounds %"struct.Assimp::LWO::Texture", ptr %19, i32 0, i32 7
  store i32 %conv30, ptr %blendType, align 8
  %call31 = call noundef float @_ZN6Assimp11LWOImporter5GetF4Ev(ptr noundef nonnull align 8 dereferenceable(233) %this1)
  %20 = load ptr, ptr %tex.addr, align 8
  %mStrength = getelementptr inbounds %"struct.Assimp::LWO::Texture", ptr %20, i32 0, i32 2
  store float %call31, ptr %mStrength, align 4
  br label %sw.epilog

sw.epilog:                                        ; preds = %sw.bb28, %sw.bb25, %sw.bb, %if.end17
  %21 = load ptr, ptr %next, align 8
  %mFileBuffer32 = getelementptr inbounds %"class.Assimp::LWOImporter", ptr %this1, i32 0, i32 12
  store ptr %21, ptr %mFileBuffer32, align 8
  br label %while.body, !llvm.loop !16

while.end:                                        ; preds = %if.then8
  ret void

eh.resume:                                        ; preds = %lpad
  %exn = load ptr, ptr %exn.slot, align 8
  %sel = load i32, ptr %ehselector.slot, align 4
  %lpad.val = insertvalue { ptr, i32 } poison, ptr %exn, 0
  %lpad.val33 = insertvalue { ptr, i32 } %lpad.val, i32 %sel, 1
  resume { ptr, i32 } %lpad.val33
}