; Function Attrs: mustprogress uwtable
define hidden void @_ZN6Assimp11LWOImporter21LoadLWO2TextureHeaderEjRNS_3LWO7TextureE(ptr noundef nonnull align 8 dereferenceable(233) %this, i32 noundef %size, ptr noundef nonnull align 8 dereferenceable(152) %tex) local_unnamed_addr #0 align 2 personality ptr @__gxx_personality_v0 {
entry:
  %mFileBuffer = getelementptr inbounds i8, ptr %this, i64 168
  %0 = load ptr, ptr %mFileBuffer, align 8
  %idx.ext = zext i32 %size to i64
  %add.ptr = getelementptr inbounds i8, ptr %0, i64 %idx.ext
  %ordinal = getelementptr inbounds i8, ptr %tex, i64 120
  tail call void @_ZN6Assimp11LWOImporter5GetS0ERNSt7__cxx1112basic_stringIcSt11char_traitsIcESaIcEEEj(ptr noundef nonnull align 8 dereferenceable(233) %this, ptr noundef nonnull align 8 dereferenceable(32) %ordinal, i32 noundef %size)
  %call = tail call noundef i64 @_ZNKSt7__cxx1112basic_stringIcSt11char_traitsIcESaIcEE6lengthEv(ptr noundef nonnull align 8 dereferenceable(32) %ordinal) #15
  %tobool.not = icmp eq i64 %call, 0
  br i1 %tobool.not, label %if.then, label %if.end

if.then:                                          ; preds = %entry
  %call3 = tail call noundef ptr @_ZN6Assimp13DefaultLogger3getEv()
  tail call void @_ZN6Assimp6Logger5errorEPKc(ptr noundef nonnull align 8 dereferenceable(12) %call3, ptr noundef nonnull @.str.43)
  %call5 = tail call noundef nonnull align 8 dereferenceable(32) ptr @_ZNSt7__cxx1112basic_stringIcSt11char_traitsIcESaIcEEaSEPKc(ptr noundef nonnull align 8 dereferenceable(32) %ordinal, ptr noundef nonnull @.str.44)
  br label %if.end

if.end:                                           ; preds = %if.then, %entry
  %1 = load ptr, ptr %mFileBuffer, align 8
  %add.ptr719 = getelementptr inbounds i8, ptr %1, i64 6
  %cmp.not20 = icmp ult ptr %add.ptr719, %add.ptr
  br i1 %cmp.not20, label %if.end9.lr.ph, label %while.end

if.end9.lr.ph:                                    ; preds = %if.end
  %blendType = getelementptr inbounds i8, ptr %tex, i64 88
  %mStrength = getelementptr inbounds i8, ptr %tex, i64 36
  %enabled = getelementptr inbounds i8, ptr %tex, i64 84
  %type24 = getelementptr inbounds i8, ptr %tex, i64 40
  br label %if.end9

if.end9:                                          ; preds = %if.end9.lr.ph, %sw.epilog
  %add.ptr721 = phi ptr [ %add.ptr719, %if.end9.lr.ph ], [ %add.ptr7, %sw.epilog ]
  %2 = phi ptr [ %1, %if.end9.lr.ph ], [ %add.ptr14, %sw.epilog ]
  %3 = load i32, ptr %2, align 1
  %add.ptr.i = getelementptr inbounds i8, ptr %2, i64 4
  store ptr %add.ptr.i, ptr %mFileBuffer, align 8
  %4 = load i16, ptr %add.ptr.i, align 1
  store ptr %add.ptr721, ptr %mFileBuffer, align 8
  %retval.sroa.10.sroa.0.0.insert.insert.i = tail call i16 @llvm.bswap.i16(i16 %4)
  %retval.sroa.10.0.insert.ext.i = zext i16 %retval.sroa.10.sroa.0.0.insert.insert.i to i64
  %add.ptr14 = getelementptr inbounds i8, ptr %add.ptr721, i64 %retval.sroa.10.0.insert.ext.i
  %cmp15 = icmp ugt ptr %add.ptr14, %add.ptr
  br i1 %cmp15, label %if.then16, label %if.end17

if.then16:                                        ; preds = %if.end9
  %exception = tail call ptr @__cxa_allocate_exception(i64 16) #15
  invoke void @_ZN17DeadlyImportErrorC2EPKc(ptr noundef nonnull align 8 dereferenceable(16) %exception, ptr noundef nonnull @.str.45)
          to label %invoke.cont unwind label %lpad

invoke.cont:                                      ; preds = %if.then16
  tail call void @__cxa_throw(ptr nonnull %exception, ptr nonnull @_ZTI17DeadlyImportError, ptr nonnull @_ZN17DeadlyImportErrorD2Ev) #16
  unreachable

lpad:                                             ; preds = %if.then16
  %5 = landingpad { ptr, i32 }
          cleanup
  tail call void @__cxa_free_exception(ptr %exception) #15
  resume { ptr, i32 } %5

if.end17:                                         ; preds = %if.end9
  %retval.sroa.0.sroa.0.0.insert.insert.i = tail call i32 @llvm.bswap.i32(i32 %3)
  switch i32 %retval.sroa.0.sroa.0.0.insert.insert.i, label %sw.epilog [
    i32 1128808782, label %sw.bb
    i32 1162756418, label %sw.bb25
    i32 1330659651, label %sw.bb28
  ]

sw.bb:                                            ; preds = %if.end17
  %6 = load i32, ptr %add.ptr721, align 1
  %add.ptr.i10 = getelementptr inbounds i8, ptr %2, i64 10
  store ptr %add.ptr.i10, ptr %mFileBuffer, align 8
  %f.sroa.0.0.insert.insert.i = tail call noundef i32 @llvm.bswap.i32(i32 %6)
  store i32 %f.sroa.0.0.insert.insert.i, ptr %type24, align 8
  br label %sw.epilog

sw.bb25:                                          ; preds = %if.end17
  %7 = load i16, ptr %add.ptr721, align 1
  %add.ptr.i12 = getelementptr inbounds i8, ptr %2, i64 8
  store ptr %add.ptr.i12, ptr %mFileBuffer, align 8
  %tobool27 = icmp ne i16 %7, 0
  %frombool = zext i1 %tobool27 to i8
  store i8 %frombool, ptr %enabled, align 4
  br label %sw.epilog

sw.bb28:                                          ; preds = %if.end17
  %8 = load i16, ptr %add.ptr721, align 1
  %add.ptr.i15 = getelementptr inbounds i8, ptr %2, i64 8
  store ptr %add.ptr.i15, ptr %mFileBuffer, align 8
  %f.sroa.0.0.insert.insert.i16 = tail call noundef i16 @llvm.bswap.i16(i16 %8)
  %conv30 = zext i16 %f.sroa.0.0.insert.insert.i16 to i32
  store i32 %conv30, ptr %blendType, align 8
  %9 = load ptr, ptr %mFileBuffer, align 8
  %10 = load i32, ptr %9, align 1
  %add.ptr.i18 = getelementptr inbounds i8, ptr %9, i64 4
  store ptr %add.ptr.i18, ptr %mFileBuffer, align 8
  %f.2.insert.insert.i = tail call i32 @llvm.bswap.i32(i32 %10)
  store i32 %f.2.insert.insert.i, ptr %mStrength, align 4
  br label %sw.epilog

sw.epilog:                                        ; preds = %sw.bb28, %sw.bb25, %sw.bb, %if.end17
  store ptr %add.ptr14, ptr %mFileBuffer, align 8
  %add.ptr7 = getelementptr inbounds i8, ptr %add.ptr14, i64 6
  %cmp.not = icmp ult ptr %add.ptr7, %add.ptr
  br i1 %cmp.not, label %if.end9, label %while.end, !llvm.loop !32

while.end:                                        ; preds = %sw.epilog, %if.end
  ret void
}